; Function Attrs: mustprogress uwtable
define hidden void @_ZN19OpenColorIO_v2_4dev11Lut1DOpData13Lut3by1DArrayC2ENS0_9HalfFlagsEmmb(ptr noundef nonnull align 8 dereferenceable(48) %this, i32 noundef %halfFlags, i64 noundef %numChannels, i64 noundef %length, i1 noundef zeroext %filterNANs) unnamed_addr #3 align 2 personality ptr @__gxx_personality_v0 {
entry:
  %m_length.i = getelementptr inbounds i8, ptr %this, i64 8
  tail call void @llvm.memset.p0.i64(ptr noundef nonnull align 8 dereferenceable(40) %m_length.i, i8 0, i64 40, i1 false)
  store ptr getelementptr inbounds ({ [11 x ptr] }, ptr @_ZTVN19OpenColorIO_v2_4dev11Lut1DOpData13Lut3by1DArrayE, i64 0, i32 0, i64 2), ptr %this, align 8
  %cmp = icmp ult i64 %length, 2
  br i1 %cmp, label %if.then, label %if.end

if.then:                                          ; preds = %entry
  %exception = tail call ptr @__cxa_allocate_exception(i64 16) #25
  invoke void @_ZN19OpenColorIO_v2_4dev9ExceptionC1EPKc(ptr noundef nonnull align 8 dereferenceable(16) %exception, ptr noundef nonnull @.str)
          to label %invoke.cont8.invoke unwind label %lpad

lpad:                                             ; preds = %if.then
  %0 = landingpad { ptr, i32 }
          cleanup
  tail call void @__cxa_free_exception(ptr %exception) #25
  br label %ehcleanup

lpad2:                                            ; preds = %invoke.cont8.invoke, %invoke.cont10, %if.end9
  %1 = landingpad { ptr, i32 }
          cleanup
  br label %ehcleanup

if.end:                                           ; preds = %entry
  %2 = and i64 %numChannels, -3
  %or.cond.not = icmp eq i64 %2, 1
  br i1 %or.cond.not, label %if.end9, label %if.then5

if.then5:                                         ; preds = %if.end
  %exception6 = tail call ptr @__cxa_allocate_exception(i64 16) #25
  invoke void @_ZN19OpenColorIO_v2_4dev9ExceptionC1EPKc(ptr noundef nonnull align 8 dereferenceable(16) %exception6, ptr noundef nonnull @.str.1)
          to label %invoke.cont8.invoke unwind label %lpad7

invoke.cont8.invoke:                              ; preds = %if.then, %if.then5
  %3 = phi ptr [ %exception6, %if.then5 ], [ %exception, %if.then ]
  invoke void @__cxa_throw(ptr nonnull %3, ptr nonnull @_ZTIN19OpenColorIO_v2_4dev9ExceptionE, ptr nonnull @_ZN19OpenColorIO_v2_4dev9ExceptionD1Ev) #26
          to label %invoke.cont8.cont unwind label %lpad2

invoke.cont8.cont:                                ; preds = %invoke.cont8.invoke
  unreachable

lpad7:                                            ; preds = %if.then5
  %4 = landingpad { ptr, i32 }
          cleanup
  tail call void @__cxa_free_exception(ptr %exception6) #25
  br label %ehcleanup

if.end9:                                          ; preds = %if.end
  invoke void @_ZN19OpenColorIO_v2_4dev11Lut1DOpData13Lut3by1DArray6resizeEmm(ptr noundef nonnull align 8 dereferenceable(48) %this, i64 noundef %length, i64 noundef %numChannels)
          to label %invoke.cont10 unwind label %lpad2

invoke.cont10:                                    ; preds = %if.end9
  invoke void @_ZN19OpenColorIO_v2_4dev11Lut1DOpData13Lut3by1DArray4fillENS0_9HalfFlagsEb(ptr noundef nonnull align 8 dereferenceable(48) %this, i32 noundef %halfFlags, i1 noundef zeroext %filterNANs)
          to label %invoke.cont11 unwind label %lpad2

invoke.cont11:                                    ; preds = %invoke.cont10
  ret void

ehcleanup:                                        ; preds = %lpad7, %lpad2, %lpad
  %.pn = phi { ptr, i32 } [ %1, %lpad2 ], [ %0, %lpad ], [ %4, %lpad7 ]
  store ptr getelementptr inbounds ({ [11 x ptr] }, ptr @_ZTVN19OpenColorIO_v2_4dev6ArrayTIfEE, i64 0, i32 0, i64 2), ptr %this, align 8
  %m_data.i = getelementptr inbounds i8, ptr %this, i64 24
  %5 = load ptr, ptr %m_data.i, align 8
  %tobool.not.i.i.i.i = icmp eq ptr %5, null
  br i1 %tobool.not.i.i.i.i, label %_ZN19OpenColorIO_v2_4dev6ArrayTIfED2Ev.exit, label %if.then.i.i.i.i

if.then.i.i.i.i:                                  ; preds = %ehcleanup
  tail call void @_ZdlPv(ptr noundef nonnull %5) #27
  br label %_ZN19OpenColorIO_v2_4dev6ArrayTIfED2Ev.exit

_ZN19OpenColorIO_v2_4dev6ArrayTIfED2Ev.exit:      ; preds = %ehcleanup, %if.then.i.i.i.i
  resume { ptr, i32 } %.pn
}